; Function Attrs: nounwind uwtable
define hidden void @AnyShortSetSpans(ptr nocapture noundef readonly %0, ptr nocapture noundef readonly %1, ptr noundef %2, i32 noundef %3, ptr nocapture readnone %4, ptr nocapture readnone %5) #1 {
  %7 = alloca [4 x i32], align 16
  %8 = getelementptr inbounds i8, ptr %0, i64 16
  %9 = load ptr, ptr %8, align 8
  %10 = getelementptr inbounds i8, ptr %0, i64 32
  %11 = load i32, ptr %10, align 8
  %12 = getelementptr inbounds i8, ptr %1, i64 32
  %13 = load ptr, ptr %12, align 8
  %14 = call zeroext i8 %13(ptr noundef %2, ptr noundef nonnull %7) #6
  %.not25 = icmp eq i8 %14, 0
  br i1 %.not25, label %._crit_edge, label %.lr.ph

.lr.ph:                                           ; preds = %6
  %15 = getelementptr inbounds i8, ptr %7, i64 4
  %16 = getelementptr inbounds i8, ptr %7, i64 8
  %17 = getelementptr inbounds i8, ptr %7, i64 12
  %18 = ptrtoint ptr %9 to i64
  %19 = sext i32 %11 to i64
  %20 = trunc i32 %3 to i16
  br label %21

21:                                               ; preds = %.lr.ph, %.split24.us
  %22 = load i32, ptr %7, align 16
  %23 = load i32, ptr %16, align 8
  %.not26 = icmp eq i32 %23, %22
  br i1 %.not26, label %.split24.us, label %.lr.ph.us.preheader

.lr.ph.us.preheader:                              ; preds = %21
  %24 = sub i32 %23, %22
  %25 = sext i32 %22 to i64
  %26 = shl nsw i64 %25, 1
  %27 = add i64 %26, %18
  %28 = load i32, ptr %15, align 4
  %29 = sext i32 %28 to i64
  %30 = mul nsw i64 %29, %19
  %31 = add i64 %27, %30
  %32 = load i32, ptr %17, align 4
  %33 = sub nsw i32 %32, %28
  %wide.trip.count = zext i32 %24 to i64
  br label %.lr.ph.us

.lr.ph.us:                                        ; preds = %.lr.ph.us.preheader, %._crit_edge.us
  %.019.us = phi i32 [ %37, %._crit_edge.us ], [ %33, %.lr.ph.us.preheader ]
  %.018.in.us = phi i64 [ %36, %._crit_edge.us ], [ %31, %.lr.ph.us.preheader ]
  %.018.us = inttoptr i64 %.018.in.us to ptr
  br label %34

34:                                               ; preds = %.lr.ph.us, %34
  %indvars.iv = phi i64 [ 0, %.lr.ph.us ], [ %indvars.iv.next, %34 ]
  %35 = getelementptr inbounds i16, ptr %.018.us, i64 %indvars.iv
  store i16 %20, ptr %35, align 2
  %indvars.iv.next = add nuw nsw i64 %indvars.iv, 1
  %exitcond.not = icmp eq i64 %indvars.iv.next, %wide.trip.count
  br i1 %exitcond.not, label %._crit_edge.us, label %34, !llvm.loop !9

._crit_edge.us:                                   ; preds = %34
  %36 = add nsw i64 %.018.in.us, %19
  %37 = add i32 %.019.us, -1
  %.not21.us = icmp eq i32 %37, 0
  br i1 %.not21.us, label %.split24.us, label %.lr.ph.us, !llvm.loop !10

.split24.us:                                      ; preds = %._crit_edge.us, %21
  %38 = load ptr, ptr %12, align 8
  %39 = call zeroext i8 %38(ptr noundef %2, ptr noundef nonnull %7) #6
  %.not = icmp eq i8 %39, 0
  br i1 %.not, label %._crit_edge, label %21, !llvm.loop !11

._crit_edge:                                      ; preds = %.split24.us, %6
  ret void
}